Certificate:
    Data:
        Version: 3 (0x2)
        Serial Number: 1193052 (0x12345c)
        Signature Algorithm: sha256WithRSAEncryption
        Issuer: C=US, ST=CA, L=San Francisco, O=Ultimate Trust, Inc., CN=ultimatetrust.com
        Validity
            Not Before: Feb 24 15:15:42 2020 GMT
            Not After : May 24 15:15:42 2020 GMT
        Subject: C=US, ST=CA, L=San Francisco, O=Tunneler, Inc., CN=www.tunneler.com
        Subject Public Key Info:
            Public Key Algorithm: rsaEncryption
                RSA Public-Key: (2048 bit)
                Modulus:
                    00:c8:d6:5d:72:2c:d2:8b:d9:7d:d4:12:38:bf:a0:
                    ad:3a:f1:5a:ca:03:4d:8a:fd:89:e6:71:b5:e9:85:
                    3b:ec:da:94:5b:42:ae:5d:0a:c3:db:9d:1c:1c:12:
                    65:32:bb:8c:54:12:4b:15:67:9b:e3:73:5a:08:7e:
                    bb:12:f9:4c:d0:b6:d0:c0:ed:2d:74:da:3b:f0:9e:
                    67:db:aa:8a:90:9e:6a:29:a1:5c:05:9b:26:a1:5d:
                    42:22:77:c5:1c:d7:43:f9:3f:bf:1c:6d:14:9a:3e:
                    60:49:5d:30:fc:66:df:e4:6b:39:e5:90:6e:5b:d7:
                    fb:b9:77:31:43:7b:89:44:99:b9:ca:24:e3:ac:aa:
                    43:c4:cb:5a:66:07:c4:e1:5f:26:be:b4:1d:5e:57:
                    3b:ec:d2:b6:a0:31:18:42:36:c5:6a:0f:39:e6:08:
                    33:31:3a:1e:7e:eb:33:09:fc:3b:0d:6b:da:90:c9:
                    79:49:11:89:53:33:73:2b:bb:9e:7e:c3:39:1a:d8:
                    0a:25:23:39:a3:60:e8:3d:45:7c:95:d6:75:a8:08:
                    bb:51:4b:b6:1d:77:7e:72:2d:0f:5e:99:2f:f4:b1:
                    36:52:57:4b:da:32:db:73:52:23:3c:52:78:5c:31:
                    5c:f1:3f:ac:b5:27:31:f0:38:6c:6e:1f:2d:5b:cf:
                    6a:df
                Exponent: 65537 (0x10001)
        X509v3 extensions:
            X509v3 Basic Constraints: 
                CA:FALSE
            X509v3 Key Usage: 
                Digital Signature
            X509v3 Extended Key Usage: 
                TLS Web Server Authentication
            Netscape Comment: 
                OpenSSL Generated Certificate
            X509v3 Subject Key Identifier: 
                F6:68:2A:47:C4:80:30:F3:0F:E9:0E:B7:FC:FB:14:47:1A:5E:44:39
            X509v3 Authority Key Identifier: 
                keyid:EE:4D:55:AC:74:43:6E:EA:47:2A:2E:76:B3:B2:62:D7:78:B0:2A:F4

    Signature Algorithm: sha256WithRSAEncryption
         12:4a:9c:65:31:be:df:32:1a:b1:ad:81:72:c6:78:67:c5:6c:
         43:b4:da:3f:e3:aa:e1:ea:50:d6:11:10:41:00:d1:8b:fe:76:
         fd:c5:02:e2:10:9e:39:35:04:08:a9:84:d6:a8:43:88:ed:e5:
         19:a4:52:3c:03:cb:cb:e4:7b:a6:1b:40:e1:b0:3c:f0:68:3a:
         17:d8:4f:19:a6:7f:ec:8c:c3:c4:38:ef:1c:57:9a:ed:81:b5:
         f7:64:be:d4:d9:57:d9:8f:0e:cc:f3:51:f9:1c:70:31:36:8e:
         b5:ac:ed:72:ae:18:bc:8c:77:0a:b2:8d:9e:d6:40:d2:5d:67:
         04:c2:54:e4:6f:21:ee:54:fe:59:67:81:5e:aa:70:a7:2a:4c:
         44:d2:f9:3b:9a:30:69:06:0b:a4:3c:81:7c:ef:9e:5f:22:00:
         25:37:7d:97:8d:ee:e5:37:31:a0:9f:f5:85:46:1b:09:b0:e7:
         c0:2c:b2:fc:73:8c:ce:44:e8:1d:04:f8:47:b8:62:2b:e1:95:
         73:83:2d:bb:a1:13:fa:60:e9:da:56:0b:a1:6e:ac:9c:f5:a3:
         83:d5:27:a3:a3:09:b7:22:68:a1:05:ae:f9:dc:c3:b6:95:cd:
         e1:50:76:62:3c:39:fb:e1:71:17:9f:26:05:c7:09:bd:a1:a8:
         33:e4:7e:db:fc:e7:17:87:0d:e2:59:91:bc:ce:d1:e2:3f:9b:
         3d:c9:f6:76:fd:bb:39:d2:f6:10:8c:48:13:5e:5f:3d:a8:46:
         c0:dd:80:21:16:d5:19:43:d6:aa:8b:00:a7:64:d0:c2:dd:de:
         97:df:d4:83:9f:73:6d:68:76:e7:5e:18:00:52:61:f0:b7:52:
         02:2d:81:88:9a:27:14:88:02:9d:f9:49:49:cd:5a:64:e1:b9:
         43:9d:f7:b3:52:e9:9b:03:51:43:8a:6e:90:07:a6:e5:ab:22:
         fa:78:55:2f:8f:2e:e3:8a:d4:89:c0:07:56:2b:ee:7f:15:13:
         7f:05:04:02:c9:f1:4d:6c:a1:a0:d8:9b:87:f4:eb:28:1e:1a:
         91:68:20:f1:fe:c5:1f:2b:ab:00:14:ff:39:93:2d:ea:ee:3c:
         f7:20:5c:a7:48:dd:e4:76:ea:48:70:89:31:18:80:f8:ce:f0:
         22:6d:e6:2a:61:dc:95:f8:74:4d:00:56:6e:6b:1b:42:10:3c:
         ae:fa:6a:9a:17:72:ae:94:3b:a8:9e:f5:52:ed:f5:a9:b8:e3:
         7d:79:1e:15:ca:a0:7c:3a:f6:23:e0:17:50:2d:f0:32:7c:bf:
         b6:06:97:bd:5e:ff:40:1c:41:b7:ad:e1:1d:62:bf:5e:78:30:
         1e:28:43:22:32:55:53:3d
-----BEGIN CERTIFICATE-----
MIIE7zCCAtegAwIBAgIDEjRcMA0GCSqGSIb3DQEBCwUAMG0xCzAJBgNVBAYTAlVT
MQswCQYDVQQIDAJDQTEWMBQGA1UEBwwNU2FuIEZyYW5jaXNjbzEdMBsGA1UECgwU
VWx0aW1hdGUgVHJ1c3QsIEluYy4xGjAYBgNVBAMMEXVsdGltYXRldHJ1c3QuY29t
MB4XDTIwMDIyNDE1MTU0MloXDTIwMDUyNDE1MTU0MlowZjELMAkGA1UEBhMCVVMx
CzAJBgNVBAgMAkNBMRYwFAYDVQQHDA1TYW4gRnJhbmNpc2NvMRcwFQYDVQQKDA5U
dW5uZWxlciwgSW5jLjEZMBcGA1UEAwwQd3d3LnR1bm5lbGVyLmNvbTCCASIwDQYJ
KoZIhvcNAQEBBQADggEPADCCAQoCggEBAMjWXXIs0ovZfdQSOL+grTrxWsoDTYr9
ieZxtemFO+zalFtCrl0Kw9udHBwSZTK7jFQSSxVnm+NzWgh+uxL5TNC20MDtLXTa
O/CeZ9uqipCeaimhXAWbJqFdQiJ3xRzXQ/k/vxxtFJo+YEldMPxm3+RrOeWQblvX
+7l3MUN7iUSZucok46yqQ8TLWmYHxOFfJr60HV5XO+zStqAxGEI2xWoPOeYIMzE6
Hn7rMwn8Ow1r2pDJeUkRiVMzcyu7nn7DORrYCiUjOaNg6D1FfJXWdagIu1FLth13
fnItD16ZL/SxNlJXS9oy23NSIzxSeFwxXPE/rLUnMfA4bG4fLVvPat8CAwEAAaOB
njCBmzAJBgNVHRMEAjAAMAsGA1UdDwQEAwIHgDATBgNVHSUEDDAKBggrBgEFBQcD
ATAsBglghkgBhvhCAQ0EHxYdT3BlblNTTCBHZW5lcmF0ZWQgQ2VydGlmaWNhdGUw
HQYDVR0OBBYEFPZoKkfEgDDzD+kOt/z7FEcaXkQ5MB8GA1UdIwQYMBaAFO5NVax0
Q27qRyoudrOyYtd4sCr0MA0GCSqGSIb3DQEBCwUAA4ICAQASSpxlMb7fMhqxrYFy
xnhnxWxDtNo/46rh6lDWERBBANGL/nb9xQLiEJ45NQQIqYTWqEOI7eUZpFI8A8vL
5HumG0DhsDzwaDoX2E8Zpn/sjMPEOO8cV5rtgbX3ZL7U2VfZjw7M81H5HHAxNo61
rO1yrhi8jHcKso2e1kDSXWcEwlTkbyHuVP5ZZ4FeqnCnKkxE0vk7mjBpBgukPIF8
755fIgAlN32Xje7lNzGgn/WFRhsJsOfALLL8c4zOROgdBPhHuGIr4ZVzgy27oRP6
YOnaVguhbqyc9aOD1Sejowm3ImihBa753MO2lc3hUHZiPDn74XEXnyYFxwm9oagz
5H7b/OcXhw3iWZG8ztHiP5s9yfZ2/bs50vYQjEgTXl89qEbA3YAhFtUZQ9aqiwCn
ZNDC3d6X39SDn3NtaHbnXhgAUmHwt1ICLYGImicUiAKd+UlJzVpk4blDnfezUumb
A1FDim6QB6blqyL6eFUvjy7jitSJwAdWK+5/FRN/BQQCyfFNbKGg2JuH9OsoHhqR
aCDx/sUfK6sAFP85ky3q7jz3IFynSN3kdupIcIkxGID4zvAibeYqYdyV+HRNAFZu
axtCEDyu+mqaF3KulDuonvVS7fWpuON9eR4VyqB8OvYj4BdQLfAyfL+2Bpe9Xv9A
HEG3reEdYr9eeDAeKEMiMlVTPQ==
-----END CERTIFICATE-----
